; ModuleID = '23/220.c'
source_filename = "23/220.c"
target datalayout = "e-m:e-p270:32:32-p271:32:32-p272:64:64-i64:64-f80:128-n8:16:32:64-S128"
target triple = "x86_64-pc-linux-gnu"

@.str = private unnamed_addr constant [3 x i8] c"%s\00", align 1
@.str.1 = private unnamed_addr constant [4 x i8] c" %s\00", align 1

; Function Attrs: noinline nounwind uwtable
define dso_local void @main() #0 {
  %1 = alloca [20 x [20 x i8]], align 16
  %2 = alloca [10 x i8], align 1
  %3 = alloca i32, align 4
  %4 = alloca i32, align 4
  %5 = alloca i32, align 4
  store i32 0, i32* %3, align 4
  br label %6

6:                                                ; preds = %13, %0
  %7 = load i32, i32* %3, align 4
  %8 = sext i32 %7 to i64
  %9 = getelementptr inbounds [20 x [20 x i8]], [20 x [20 x i8]]* %1, i64 0, i64 %8
  %10 = getelementptr inbounds [20 x i8], [20 x i8]* %9, i64 0, i64 0
  %11 = call i32 (i8*, ...) @__isoc99_scanf(i8* getelementptr inbounds ([3 x i8], [3 x i8]* @.str, i64 0, i64 0), i8* %10)
  %12 = icmp ne i32 %11, -1
  br i1 %12, label %13, label %16

13:                                               ; preds = %6
  %14 = load i32, i32* %3, align 4
  %15 = add nsw i32 %14, 1
  store i32 %15, i32* %3, align 4
  br label %6

16:                                               ; preds = %6
  store i32 0, i32* %4, align 4
  %17 = load i32, i32* %3, align 4
  %18 = sub nsw i32 %17, 1
  store i32 %18, i32* %5, align 4
  br label %19

19:                                               ; preds = %45, %16
  %20 = getelementptr inbounds [10 x i8], [10 x i8]* %2, i64 0, i64 0
  %21 = load i32, i32* %4, align 4
  %22 = sext i32 %21 to i64
  %23 = getelementptr inbounds [20 x [20 x i8]], [20 x [20 x i8]]* %1, i64 0, i64 %22
  %24 = getelementptr inbounds [20 x i8], [20 x i8]* %23, i64 0, i64 0
  %25 = call i8* @strcpy(i8* %20, i8* %24) #3
  %26 = load i32, i32* %4, align 4
  %27 = sext i32 %26 to i64
  %28 = getelementptr inbounds [20 x [20 x i8]], [20 x [20 x i8]]* %1, i64 0, i64 %27
  %29 = getelementptr inbounds [20 x i8], [20 x i8]* %28, i64 0, i64 0
  %30 = load i32, i32* %5, align 4
  %31 = sext i32 %30 to i64
  %32 = getelementptr inbounds [20 x [20 x i8]], [20 x [20 x i8]]* %1, i64 0, i64 %31
  %33 = getelementptr inbounds [20 x i8], [20 x i8]* %32, i64 0, i64 0
  %34 = call i8* @strcpy(i8* %29, i8* %33) #3
  %35 = load i32, i32* %5, align 4
  %36 = sext i32 %35 to i64
  %37 = getelementptr inbounds [20 x [20 x i8]], [20 x [20 x i8]]* %1, i64 0, i64 %36
  %38 = getelementptr inbounds [20 x i8], [20 x i8]* %37, i64 0, i64 0
  %39 = getelementptr inbounds [10 x i8], [10 x i8]* %2, i64 0, i64 0
  %40 = call i8* @strcpy(i8* %38, i8* %39) #3
  %41 = load i32, i32* %4, align 4
  %42 = add nsw i32 %41, 1
  store i32 %42, i32* %4, align 4
  %43 = load i32, i32* %5, align 4
  %44 = add nsw i32 %43, -1
  store i32 %44, i32* %5, align 4
  br label %45

45:                                               ; preds = %19
  %46 = load i32, i32* %4, align 4
  %47 = load i32, i32* %5, align 4
  %48 = icmp sle i32 %46, %47
  br i1 %48, label %19, label %49

49:                                               ; preds = %45
  %50 = getelementptr inbounds [20 x [20 x i8]], [20 x [20 x i8]]* %1, i64 0, i64 0
  %51 = getelementptr inbounds [20 x i8], [20 x i8]* %50, i64 0, i64 0
  %52 = call i32 (i8*, ...) @printf(i8* getelementptr inbounds ([3 x i8], [3 x i8]* @.str, i64 0, i64 0), i8* %51)
  store i32 1, i32* %4, align 4
  br label %53

53:                                               ; preds = %63, %49
  %54 = load i32, i32* %4, align 4
  %55 = load i32, i32* %3, align 4
  %56 = icmp slt i32 %54, %55
  br i1 %56, label %57, label %66

57:                                               ; preds = %53
  %58 = load i32, i32* %4, align 4
  %59 = sext i32 %58 to i64
  %60 = getelementptr inbounds [20 x [20 x i8]], [20 x [20 x i8]]* %1, i64 0, i64 %59
  %61 = getelementptr inbounds [20 x i8], [20 x i8]* %60, i64 0, i64 0
  %62 = call i32 (i8*, ...) @printf(i8* getelementptr inbounds ([4 x i8], [4 x i8]* @.str.1, i64 0, i64 0), i8* %61)
  br label %63

63:                                               ; preds = %57
  %64 = load i32, i32* %4, align 4
  %65 = add nsw i32 %64, 1
  store i32 %65, i32* %4, align 4
  br label %53

66:                                               ; preds = %53
  ret void
}

declare dso_local i32 @__isoc99_scanf(i8*, ...) #1

; Function Attrs: nounwind
declare dso_local i8* @strcpy(i8*, i8*) #2

declare dso_local i32 @printf(i8*, ...) #1


!llvm.module.flags = !{!0}
!llvm.ident = !{!1}

!0 = !{i32 1, !"wchar_size", i32 4}
!1 = !{!"clang version 10.0.0-4ubuntu1 "}
